target datalayout = "e-m:e-p270:32:32-p271:32:32-p272:64:64-i64:64-i128:128-f80:128-n8:16:32:64-S128"
target triple = "x86_64-pc-linux-gnu"

%struct.reduced_atom = type { [3 x float], i32 }

@.str = private unnamed_addr constant [10 x i8] c"index_atp\00", align 1
@.str.1 = private unnamed_addr constant [124 x i8] c"generated/home/dtcxzyw/WorkSpace/Projects/compilers/llvm-opt-benchmark/bench/gromacs/gromacs/src/gromacs/gmxana/sfactor.cpp\00", align 1

; Function Attrs: mustprogress uwtable
define internal void @_ZL15gmx_srenew_implIiEvPKcS1_iRPT_m(ptr noundef %0, ptr noundef %1, i32 noundef %2, ptr noundef nonnull align 8 dereferenceable(8) %3, i64 noundef %4) #0 {
  %6 = alloca ptr, align 8
  %7 = alloca ptr, align 8
  %8 = alloca i32, align 4
  %9 = alloca ptr, align 8
  %10 = alloca i64, align 8
  store ptr %0, ptr %6, align 8
  store ptr %1, ptr %7, align 8
  store i32 %2, ptr %8, align 4
  store ptr %3, ptr %9, align 8
  store i64 %4, ptr %10, align 8
  %11 = load ptr, ptr %6, align 8
  %12 = load ptr, ptr %7, align 8
  %13 = load i32, ptr %8, align 4
  %14 = load ptr, ptr %9, align 8
  %15 = load ptr, ptr %14, align 8
  %16 = load i64, ptr %10, align 8
  %17 = call noundef ptr @_Z12save_reallocPKcS0_iPvmm(ptr noundef %11, ptr noundef %12, i32 noundef %13, ptr noundef %15, i64 noundef %16, i64 noundef 4)
  %18 = load ptr, ptr %9, align 8
  store ptr %17, ptr %18, align 8
  ret void
}

; Function Attrs: mustprogress uwtable
define internal void @_ZL13gmx_snew_implIiEvPKcS1_iRPT_m(ptr noundef %0, ptr noundef %1, i32 noundef %2, ptr noundef nonnull align 8 dereferenceable(8) %3, i64 noundef %4) #0 {
  %6 = alloca ptr, align 8
  %7 = alloca ptr, align 8
  %8 = alloca i32, align 4
  %9 = alloca ptr, align 8
  %10 = alloca i64, align 8
  store ptr %0, ptr %6, align 8
  store ptr %1, ptr %7, align 8
  store i32 %2, ptr %8, align 4
  store ptr %3, ptr %9, align 8
  store i64 %4, ptr %10, align 8
  %11 = load ptr, ptr %6, align 8
  %12 = load ptr, ptr %7, align 8
  %13 = load i32, ptr %8, align 4
  %14 = load i64, ptr %10, align 8
  %15 = call noundef ptr @_Z11save_callocPKcS0_imm(ptr noundef %11, ptr noundef %12, i32 noundef %13, i64 noundef %14, i64 noundef 4)
  %16 = load ptr, ptr %9, align 8
  store ptr %15, ptr %16, align 8
  ret void
}

; Function Attrs: mustprogress uwtable
define noundef ptr @_Z24create_indexed_atom_typeP12reduced_atomi(ptr noundef %0, i32 noundef %1) #0 {
  %3 = alloca ptr, align 8
  %4 = alloca i32, align 4
  %5 = alloca ptr, align 8
  %6 = alloca i32, align 4
  %7 = alloca i32, align 4
  %8 = alloca i32, align 4
  %9 = alloca ptr, align 8
  store ptr %0, ptr %3, align 8
  store i32 %1, ptr %4, align 4
  %10 = load ptr, ptr %3, align 8
  store ptr %10, ptr %9, align 8
  call void @_ZL13gmx_snew_implIiEvPKcS1_iRPT_m(ptr noundef @.str, ptr noundef @.str.1, i32 noundef 107, ptr noundef nonnull align 8 dereferenceable(8) %5, i64 noundef 1)
  store i32 1, ptr %7, align 4
  %11 = load ptr, ptr %9, align 8
  %12 = getelementptr inbounds %struct.reduced_atom, ptr %11, i64 0
  %13 = getelementptr inbounds %struct.reduced_atom, ptr %12, i32 0, i32 1
  %14 = load i32, ptr %13, align 4
  %15 = load ptr, ptr %5, align 8
  %16 = getelementptr inbounds i32, ptr %15, i64 0
  store i32 %14, ptr %16, align 4
  store i32 1, ptr %6, align 4
  br label %17

17:                                               ; preds = %66, %2
  %18 = load i32, ptr %6, align 4
  %19 = load i32, ptr %4, align 4
  %20 = icmp slt i32 %18, %19
  br i1 %20, label %21, label %69

21:                                               ; preds = %17
  store i32 0, ptr %8, align 4
  br label %22

22:                                               ; preds = %41, %21
  %23 = load i32, ptr %8, align 4
  %24 = load i32, ptr %7, align 4
  %25 = icmp slt i32 %23, %24
  br i1 %25, label %26, label %44

26:                                               ; preds = %22
  %27 = load ptr, ptr %9, align 8
  %28 = load i32, ptr %6, align 4
  %29 = sext i32 %28 to i64
  %30 = getelementptr inbounds %struct.reduced_atom, ptr %27, i64 %29
  %31 = getelementptr inbounds %struct.reduced_atom, ptr %30, i32 0, i32 1
  %32 = load i32, ptr %31, align 4
  %33 = load ptr, ptr %5, align 8
  %34 = load i32, ptr %8, align 4
  %35 = sext i32 %34 to i64
  %36 = getelementptr inbounds i32, ptr %33, i64 %35
  %37 = load i32, ptr %36, align 4
  %38 = icmp eq i32 %32, %37
  br i1 %38, label %39, label %40

39:                                               ; preds = %26
  br label %44

40:                                               ; preds = %26
  br label %41

41:                                               ; preds = %40
  %42 = load i32, ptr %8, align 4
  %43 = add nsw i32 %42, 1
  store i32 %43, ptr %8, align 4
  br label %22, !llvm.loop !5

44:                                               ; preds = %39, %22
  %45 = load i32, ptr %8, align 4
  %46 = load i32, ptr %7, align 4
  %47 = icmp eq i32 %45, %46
  br i1 %47, label %48, label %65

48:                                               ; preds = %44
  %49 = load i32, ptr %7, align 4
  %50 = add nsw i32 %49, 1
  store i32 %50, ptr %7, align 4
  %51 = load i32, ptr %7, align 4
  %52 = sext i32 %51 to i64
  %53 = mul i64 %52, 4
  call void @_ZL15gmx_srenew_implIiEvPKcS1_iRPT_m(ptr noundef @.str, ptr noundef @.str.1, i32 noundef 122, ptr noundef nonnull align 8 dereferenceable(8) %5, i64 noundef %53)
  %54 = load ptr, ptr %9, align 8
  %55 = load i32, ptr %6, align 4
  %56 = sext i32 %55 to i64
  %57 = getelementptr inbounds %struct.reduced_atom, ptr %54, i64 %56
  %58 = getelementptr inbounds %struct.reduced_atom, ptr %57, i32 0, i32 1
  %59 = load i32, ptr %58, align 4
  %60 = load ptr, ptr %5, align 8
  %61 = load i32, ptr %7, align 4
  %62 = sub nsw i32 %61, 1
  %63 = sext i32 %62 to i64
  %64 = getelementptr inbounds i32, ptr %60, i64 %63
  store i32 %59, ptr %64, align 4
  br label %65

65:                                               ; preds = %48, %44
  br label %66

66:                                               ; preds = %65
  %67 = load i32, ptr %6, align 4
  %68 = add nsw i32 %67, 1
  store i32 %68, ptr %6, align 4
  br label %17, !llvm.loop !7

69:                                               ; preds = %17
  %70 = load i32, ptr %7, align 4
  %71 = add nsw i32 %70, 1
  store i32 %71, ptr %7, align 4
  %72 = load i32, ptr %7, align 4
  %73 = sext i32 %72 to i64
  %74 = mul i64 %73, 4
  call void @_ZL15gmx_srenew_implIiEvPKcS1_iRPT_m(ptr noundef @.str, ptr noundef @.str.1, i32 noundef 127, ptr noundef nonnull align 8 dereferenceable(8) %5, i64 noundef %74)
  %75 = load ptr, ptr %5, align 8
  %76 = load i32, ptr %7, align 4
  %77 = sub nsw i32 %76, 1
  %78 = sext i32 %77 to i64
  %79 = getelementptr inbounds i32, ptr %75, i64 %78
  store i32 0, ptr %79, align 4
  %80 = load ptr, ptr %5, align 8
  ret ptr %80
}