; Function Attrs: mustprogress uwtable
define noundef ptr @_Z24create_indexed_atom_typeP12reduced_atomi(ptr nocapture noundef readonly %0, i32 noundef %1) local_unnamed_addr #0 {
  %3 = tail call noundef ptr @_Z11save_callocPKcS0_imm(ptr noundef nonnull @.str, ptr noundef nonnull @.str.1, i32 noundef 107, i64 noundef 1, i64 noundef 4)
  %4 = getelementptr inbounds i8, ptr %0, i64 12
  %5 = load i32, ptr %4, align 4
  store i32 %5, ptr %3, align 4
  %6 = icmp sgt i32 %1, 1
  br i1 %6, label %.preheader.preheader, label %._crit_edge36

.preheader.preheader:                             ; preds = %2
  %wide.trip.count43 = zext nneg i32 %1 to i64
  br label %.preheader

.preheader:                                       ; preds = %.preheader.preheader, %25
  %indvars.iv40 = phi i64 [ 1, %.preheader.preheader ], [ %indvars.iv.next41, %25 ]
  %.02134 = phi i32 [ 1, %.preheader.preheader ], [ %.1, %25 ]
  %.02833 = phi ptr [ %3, %.preheader.preheader ], [ %.129, %25 ]
  %7 = icmp sgt i32 %.02134, 0
  br i1 %7, label %.lr.ph, label %._crit_edge

.lr.ph:                                           ; preds = %.preheader
  %8 = getelementptr inbounds %struct.reduced_atom, ptr %0, i64 %indvars.iv40, i32 1
  %9 = load i32, ptr %8, align 4
  %wide.trip.count = zext nneg i32 %.02134 to i64
  br label %10

10:                                               ; preds = %.lr.ph, %14
  %indvars.iv = phi i64 [ 0, %.lr.ph ], [ %indvars.iv.next, %14 ]
  %11 = getelementptr inbounds i32, ptr %.02833, i64 %indvars.iv
  %12 = load i32, ptr %11, align 4
  %13 = icmp eq i32 %9, %12
  br i1 %13, label %._crit_edge.loopexit, label %14

14:                                               ; preds = %10
  %indvars.iv.next = add nuw nsw i64 %indvars.iv, 1
  %exitcond.not = icmp eq i64 %indvars.iv.next, %wide.trip.count
  br i1 %exitcond.not, label %._crit_edge.thread, label %10, !llvm.loop !5

._crit_edge.loopexit:                             ; preds = %10
  %15 = trunc nuw nsw i64 %indvars.iv to i32
  br label %._crit_edge

._crit_edge:                                      ; preds = %._crit_edge.loopexit, %.preheader
  %.020.lcssa = phi i32 [ 0, %.preheader ], [ %15, %._crit_edge.loopexit ]
  %16 = icmp eq i32 %.020.lcssa, %.02134
  br i1 %16, label %._crit_edge.thread, label %25

._crit_edge.thread:                               ; preds = %14, %._crit_edge
  %17 = add nsw i32 %.02134, 1
  %18 = sext i32 %17 to i64
  %19 = shl nsw i64 %18, 2
  %20 = tail call noundef ptr @_Z12save_reallocPKcS0_iPvmm(ptr noundef nonnull @.str, ptr noundef nonnull @.str.1, i32 noundef 122, ptr noundef %.02833, i64 noundef %19, i64 noundef 4)
  %21 = getelementptr inbounds %struct.reduced_atom, ptr %0, i64 %indvars.iv40, i32 1
  %22 = load i32, ptr %21, align 4
  %23 = sext i32 %.02134 to i64
  %24 = getelementptr inbounds i32, ptr %20, i64 %23
  store i32 %22, ptr %24, align 4
  br label %25

25:                                               ; preds = %._crit_edge, %._crit_edge.thread
  %.129 = phi ptr [ %20, %._crit_edge.thread ], [ %.02833, %._crit_edge ]
  %.1 = phi i32 [ %17, %._crit_edge.thread ], [ %.02134, %._crit_edge ]
  %indvars.iv.next41 = add nuw nsw i64 %indvars.iv40, 1
  %exitcond44.not = icmp eq i64 %indvars.iv.next41, %wide.trip.count43
  br i1 %exitcond44.not, label %._crit_edge36, label %.preheader, !llvm.loop !7

._crit_edge36:                                    ; preds = %25, %2
  %.028.lcssa = phi ptr [ %3, %2 ], [ %.129, %25 ]
  %.021.lcssa = phi i32 [ 1, %2 ], [ %.1, %25 ]
  %26 = add nsw i32 %.021.lcssa, 1
  %27 = sext i32 %26 to i64
  %28 = shl nsw i64 %27, 2
  %29 = tail call noundef ptr @_Z12save_reallocPKcS0_iPvmm(ptr noundef nonnull @.str, ptr noundef nonnull @.str.1, i32 noundef 127, ptr noundef %.028.lcssa, i64 noundef %28, i64 noundef 4)
  %30 = sext i32 %.021.lcssa to i64
  %31 = getelementptr inbounds i32, ptr %29, i64 %30
  store i32 0, ptr %31, align 4
  ret ptr %29
}